Certificate:
    Data:
        Version: 3 (0x2)
        Serial Number:
            7c:f8:d9:1d:7a:10:4b:2c:da:6b:4d:db:4b:40:dd:01
    Signature Algorithm: sha256WithRSAEncryption
        Issuer: CN=TestenvOVPN
        Validity
            Not Before: Feb 11 18:12:23 2021 GMT
            Not After : May 17 18:12:23 2023 GMT
        Subject: CN=OVPNClient1
        Subject Public Key Info:
            Public Key Algorithm: rsaEncryption
                Public-Key: (2048 bit)
                Modulus:
                    00:c5:f1:dd:50:0d:86:92:83:aa:6b:f4:95:f8:4e:
                    31:e4:9e:c8:19:32:dc:22:75:e8:9c:91:ab:15:77:
                    8a:13:f0:b9:e7:7d:10:15:2e:27:0f:08:3d:9d:53:
                    2a:0e:e5:bd:54:8d:9a:4d:3c:44:a8:14:56:e8:da:
                    99:b5:af:99:3f:8e:2f:d4:25:7d:e7:96:a4:1a:1e:
                    79:27:7a:de:cd:9b:b7:30:0a:04:6f:77:09:d8:e7:
                    05:45:79:8e:4e:26:14:f8:c8:9e:6f:af:8b:4f:d8:
                    e2:01:38:d7:37:88:01:55:01:8c:d7:7a:9f:90:74:
                    06:e4:dc:69:6c:ca:c4:db:94:13:1d:6e:b3:8a:6b:
                    c8:79:d8:48:33:75:2c:5b:46:30:6e:73:43:a9:2c:
                    aa:3b:94:50:12:83:53:a3:7a:51:f3:66:cd:ba:84:
                    27:d9:5c:97:4c:00:77:8d:8f:48:b9:c1:2c:ba:9b:
                    69:85:e5:36:66:86:97:f8:87:75:cf:e9:f8:7f:f6:
                    f1:74:7c:0e:22:0f:1a:5f:ae:36:0b:1b:67:aa:69:
                    76:c9:aa:9d:98:77:c7:60:c8:a0:45:71:77:0a:64:
                    e2:e3:e3:03:03:c0:24:78:56:58:68:b5:ac:6a:6d:
                    62:d8:73:5c:31:7e:7a:91:84:11:05:d9:2f:2b:1e:
                    1e:c5
                Exponent: 65537 (0x10001)
        X509v3 extensions:
            X509v3 Basic Constraints: 
                CA:FALSE
            X509v3 Subject Key Identifier: 
                DC:8F:F3:0A:2D:38:E0:12:98:B4:24:60:3C:E3:2E:5E:7C:4D:5B:C2
            X509v3 Authority Key Identifier: 
                keyid:2A:D4:01:B2:40:C3:B8:2A:22:FA:C7:0E:A7:CD:F1:E3:66:10:C6:87
                DirName:/CN=TestenvOVPN
                serial:D3:61:25:7E:52:DC:27:0C

            X509v3 Extended Key Usage: 
                TLS Web Client Authentication
            X509v3 Key Usage: 
                Digital Signature
    Signature Algorithm: sha256WithRSAEncryption
         39:2b:70:19:66:ff:75:d0:85:b6:c1:f9:8b:41:44:8d:65:ef:
         30:a8:e5:f4:19:d5:34:95:f5:61:18:2a:41:5c:6e:91:26:95:
         91:d8:66:87:29:c6:60:de:bf:ff:d4:38:8c:bc:33:3c:12:06:
         01:48:48:d9:57:0a:7b:1b:85:02:9c:7e:8d:33:90:43:e5:5c:
         14:d5:8f:8a:e7:50:45:06:a7:b7:34:47:50:63:9b:0a:a8:15:
         21:52:38:87:2c:ff:52:cd:36:47:a5:98:af:5f:5d:ea:70:d4:
         57:44:62:90:f0:72:74:75:25:19:59:80:96:26:9f:37:bb:33:
         01:c3:e6:8c:15:2f:50:d7:51:7e:26:a6:96:c7:e9:a0:f9:59:
         03:a1:bd:d0:b5:15:c1:66:76:bb:e0:14:cd:d4:5d:0a:28:83:
         9b:68:ee:fc:ea:58:ac:b9:9a:68:61:e6:28:10:33:4b:82:bf:
         be:d2:48:66:50:7c:f7:d7:5b:ae:1f:b3:f0:d7:a8:07:f6:08:
         25:ea:61:4e:21:7a:92:e8:9a:29:27:60:7e:ba:c9:9f:d5:c4:
         b4:e9:6c:fb:a8:34:0c:64:29:18:32:45:bf:d6:26:a7:90:6b:
         1c:97:2c:3b:6d:87:58:14:6a:bd:5d:55:c2:cd:05:95:94:17:
         06:0b:3f:c9
-----BEGIN CERTIFICATE-----
MIIDTjCCAjagAwIBAgIQfPjZHXoQSyzaa03bS0DdATANBgkqhkiG9w0BAQsFADAW
MRQwEgYDVQQDDAtUZXN0ZW52T1ZQTjAeFw0yMTAyMTExODEyMjNaFw0yMzA1MTcx
ODEyMjNaMBYxFDASBgNVBAMMC09WUE5DbGllbnQxMIIBIjANBgkqhkiG9w0BAQEF
AAOCAQ8AMIIBCgKCAQEAxfHdUA2GkoOqa/SV+E4x5J7IGTLcInXonJGrFXeKE/C5
530QFS4nDwg9nVMqDuW9VI2aTTxEqBRW6NqZta+ZP44v1CV955akGh55J3rezZu3
MAoEb3cJ2OcFRXmOTiYU+Mieb6+LT9jiATjXN4gBVQGM13qfkHQG5NxpbMrE25QT
HW6zimvIedhIM3UsW0YwbnNDqSyqO5RQEoNTo3pR82bNuoQn2VyXTAB3jY9IucEs
uptpheU2ZoaX+Id1z+n4f/bxdHwOIg8aX642Cxtnqml2yaqdmHfHYMigRXF3CmTi
4+MDA8AkeFZYaLWsam1i2HNcMX56kYQRBdkvKx4exQIDAQABo4GXMIGUMAkGA1Ud
EwQCMAAwHQYDVR0OBBYEFNyP8wotOOASmLQkYDzjLl58TVvCMEYGA1UdIwQ/MD2A
FCrUAbJAw7gqIvrHDqfN8eNmEMaHoRqkGDAWMRQwEgYDVQQDDAtUZXN0ZW52T1ZQ
ToIJANNhJX5S3CcMMBMGA1UdJQQMMAoGCCsGAQUFBwMCMAsGA1UdDwQEAwIHgDAN
BgkqhkiG9w0BAQsFAAOCAQEAOStwGWb/ddCFtsH5i0FEjWXvMKjl9BnVNJX1YRgq
QVxukSaVkdhmhynGYN6//9Q4jLwzPBIGAUhI2VcKexuFApx+jTOQQ+VcFNWPiudQ
RQantzRHUGObCqgVIVI4hyz/Us02R6WYr19d6nDUV0RikPBydHUlGVmAliafN7sz
AcPmjBUvUNdRfiamlsfpoPlZA6G90LUVwWZ2u+AUzdRdCiiDm2ju/OpYrLmaaGHm
KBAzS4K/vtJIZlB899dbrh+z8NeoB/YIJephTiF6kuiaKSdgfrrJn9XEtOls+6g0
DGQpGDJFv9Ymp5BrHJcsO22HWBRqvV1Vws0FlZQXBgs/yQ==
-----END CERTIFICATE-----
