Certificate:
    Data:
        Version: 3 (0x2)
        Serial Number:
            a5:fd:97:ac:31:d2:1c:6d:68:76:03:a0:38:45:76:3e
    Signature Algorithm: sha256WithRSAEncryption
        Issuer: CN=TestenvOVPN
        Validity
            Not Before: Feb 11 18:11:13 2021 GMT
            Not After : May 17 18:11:13 2023 GMT
        Subject: CN=TestenvOVPNServer
        Subject Public Key Info:
            Public Key Algorithm: rsaEncryption
                Public-Key: (2048 bit)
                Modulus:
                    00:ad:e3:ea:38:45:16:4b:6a:66:a7:79:da:b9:38:
                    f7:ae:36:2f:f9:aa:c1:0f:cc:b0:3e:8e:66:e4:ef:
                    04:48:ca:76:f0:09:9d:c7:93:d8:e1:8d:30:0b:11:
                    21:63:1e:29:5d:26:d2:d1:65:95:1b:76:c2:6e:de:
                    1c:d7:64:fc:e5:58:86:e9:71:07:a2:3a:a2:16:c9:
                    b7:5a:bb:78:aa:77:5c:29:e6:1a:06:05:19:33:fa:
                    1e:20:ec:39:e7:63:ae:56:20:09:57:de:7f:a2:d4:
                    ce:30:59:fd:47:d4:a5:27:10:47:a8:2f:2f:65:1f:
                    3f:cb:dd:7a:95:50:3b:8e:f5:ce:51:e7:19:6b:77:
                    eb:15:aa:b1:17:e6:2b:89:5c:d6:7f:e9:c5:d9:4e:
                    3a:c7:99:a7:61:50:75:56:96:ab:72:61:c0:40:43:
                    2c:33:5e:6c:ca:8a:00:9b:16:47:76:14:5b:9a:80:
                    24:8d:ca:a4:04:b0:86:ac:64:0a:0c:42:5d:cb:d2:
                    e9:94:29:0b:6f:be:df:c9:b8:c4:8f:85:d3:b7:29:
                    5e:90:e6:1b:60:f2:1c:dc:b9:99:7a:61:c3:cc:3a:
                    1f:0e:72:89:65:d2:f8:5c:86:2f:11:b6:12:a5:7a:
                    03:af:56:f8:9c:97:06:14:96:77:d8:b5:00:3d:20:
                    29:4b
                Exponent: 65537 (0x10001)
        X509v3 extensions:
            X509v3 Basic Constraints: 
                CA:FALSE
            X509v3 Subject Key Identifier: 
                1B:53:57:76:AD:28:8E:53:ED:1F:D6:96:BA:87:C8:01:D4:14:6E:4D
            X509v3 Authority Key Identifier: 
                keyid:2A:D4:01:B2:40:C3:B8:2A:22:FA:C7:0E:A7:CD:F1:E3:66:10:C6:87
                DirName:/CN=TestenvOVPN
                serial:D3:61:25:7E:52:DC:27:0C

            X509v3 Extended Key Usage: 
                TLS Web Server Authentication
            X509v3 Key Usage: 
                Digital Signature, Key Encipherment
            X509v3 Subject Alternative Name: 
                DNS:TestenvOVPNServer
    Signature Algorithm: sha256WithRSAEncryption
         04:2f:ce:01:20:74:aa:35:ab:5b:4c:72:f6:3c:53:cb:fe:ce:
         61:e4:d0:b0:d0:f7:2b:db:f6:81:a0:89:d8:18:13:a5:1b:a2:
         22:8f:0b:2b:77:c9:af:e5:01:7f:de:35:c1:c8:99:c2:1e:d1:
         d5:03:da:48:55:2e:63:eb:49:f5:51:44:fc:6a:71:dd:17:2e:
         72:78:17:7a:99:d8:0d:22:1c:b8:f8:e2:3d:79:3b:27:07:85:
         9a:ff:1e:96:99:5d:58:03:ac:ad:36:db:53:3c:59:cf:86:2c:
         f5:aa:7f:41:00:43:5b:c0:ef:88:54:23:0d:24:8b:5b:0b:54:
         b9:5c:c8:70:c6:fe:fd:74:46:73:db:33:32:0a:a5:7c:ec:fe:
         89:ac:2d:31:bc:e5:a1:c3:f4:20:2d:bc:9e:f2:a5:ee:f6:1a:
         27:4e:9b:ff:5f:ed:b2:f8:eb:cb:02:f9:2d:3c:eb:1a:c6:03:
         d4:f2:f2:b0:1f:f2:66:03:44:01:b4:fc:e1:4f:ed:e6:e6:1c:
         a8:53:da:5e:a7:9d:7e:6f:86:a3:3b:c0:68:72:fa:73:8e:49:
         91:b2:df:6a:bc:87:97:78:a3:f6:58:26:1c:73:58:72:b2:68:
         f9:42:36:6a:d7:bf:9e:14:b6:5a:b2:fd:af:a2:bb:15:d9:69:
         e9:0d:8f:0b
-----BEGIN CERTIFICATE-----
MIIDczCCAlugAwIBAgIRAKX9l6wx0hxtaHYDoDhFdj4wDQYJKoZIhvcNAQELBQAw
FjEUMBIGA1UEAwwLVGVzdGVudk9WUE4wHhcNMjEwMjExMTgxMTEzWhcNMjMwNTE3
MTgxMTEzWjAcMRowGAYDVQQDDBFUZXN0ZW52T1ZQTlNlcnZlcjCCASIwDQYJKoZI
hvcNAQEBBQADggEPADCCAQoCggEBAK3j6jhFFktqZqd52rk49642L/mqwQ/MsD6O
ZuTvBEjKdvAJnceT2OGNMAsRIWMeKV0m0tFllRt2wm7eHNdk/OVYhulxB6I6ohbJ
t1q7eKp3XCnmGgYFGTP6HiDsOedjrlYgCVfef6LUzjBZ/UfUpScQR6gvL2UfP8vd
epVQO471zlHnGWt36xWqsRfmK4lc1n/pxdlOOseZp2FQdVaWq3JhwEBDLDNebMqK
AJsWR3YUW5qAJI3KpASwhqxkCgxCXcvS6ZQpC2++38m4xI+F07cpXpDmG2DyHNy5
mXphw8w6Hw5yiWXS+FyGLxG2EqV6A69W+JyXBhSWd9i1AD0gKUsCAwEAAaOBtTCB
sjAJBgNVHRMEAjAAMB0GA1UdDgQWBBQbU1d2rSiOU+0f1pa6h8gB1BRuTTBGBgNV
HSMEPzA9gBQq1AGyQMO4KiL6xw6nzfHjZhDGh6EapBgwFjEUMBIGA1UEAwwLVGVz
dGVudk9WUE6CCQDTYSV+UtwnDDATBgNVHSUEDDAKBggrBgEFBQcDATALBgNVHQ8E
BAMCBaAwHAYDVR0RBBUwE4IRVGVzdGVudk9WUE5TZXJ2ZXIwDQYJKoZIhvcNAQEL
BQADggEBAAQvzgEgdKo1q1tMcvY8U8v+zmHk0LDQ9yvb9oGgidgYE6UboiKPCyt3
ya/lAX/eNcHImcIe0dUD2khVLmPrSfVRRPxqcd0XLnJ4F3qZ2A0iHLj44j15OycH
hZr/HpaZXVgDrK0221M8Wc+GLPWqf0EAQ1vA74hUIw0ki1sLVLlcyHDG/v10RnPb
MzIKpXzs/omsLTG85aHD9CAtvJ7ype72GidOm/9f7bL468sC+S086xrGA9Ty8rAf
8mYDRAG0/OFP7ebmHKhT2l6nnX5vhqM7wGhy+nOOSZGy32q8h5d4o/ZYJhxzWHKy
aPlCNmrXv54Utlqy/a+iuxXZaekNjws=
-----END CERTIFICATE-----
