Certificate:
    Data:
        Version: 3 (0x2)
        Serial Number:
            51:4f:d6:2c:ba:4d:2b:5f:37:f8:b0:96:b1:e5:13:45
    Signature Algorithm: sha256WithRSAEncryption
        Issuer: CN=TestenvOVPN
        Validity
            Not Before: Feb 11 18:12:25 2021 GMT
            Not After : May 17 18:12:25 2023 GMT
        Subject: CN=OVPNClient2
        Subject Public Key Info:
            Public Key Algorithm: rsaEncryption
                Public-Key: (2048 bit)
                Modulus:
                    00:c7:ac:6f:17:c5:20:fa:b5:ba:6e:ae:58:bb:5a:
                    0e:d9:af:4f:e7:1d:44:7b:0e:0e:42:c9:ff:eb:37:
                    29:31:e0:68:57:76:98:11:fa:0c:4d:9d:80:a1:71:
                    ca:2e:86:4f:93:6a:81:1b:65:95:28:6e:f4:66:83:
                    bb:9f:8c:81:b6:0d:67:ae:0e:45:bf:5b:ee:f5:f8:
                    f0:98:e2:46:ba:4d:1f:6a:27:7a:8a:75:02:a3:d3:
                    10:10:5e:bc:49:8d:06:38:95:e7:fb:e5:4b:b0:3f:
                    b2:69:b6:e9:d1:23:19:85:86:4d:28:52:44:ea:16:
                    ef:c2:fc:87:c4:a2:76:65:ef:f7:d3:73:38:2b:8d:
                    9b:f6:0b:57:7f:14:08:d9:1d:7a:80:a7:58:cd:28:
                    b9:00:a7:e2:82:22:1e:be:fc:48:c8:13:7c:33:7a:
                    e0:f1:4a:50:9e:ec:21:8f:ce:27:cc:bd:ab:eb:0d:
                    16:0a:3c:13:4c:3a:05:c9:7f:aa:b3:fc:2a:ee:c6:
                    d5:c2:5e:bb:99:24:ec:9b:41:19:f1:d5:30:2e:6d:
                    b0:f6:af:71:2e:88:27:b0:25:c5:63:35:2c:53:60:
                    77:be:4d:34:0d:be:b6:06:d8:c6:81:d5:80:0f:de:
                    7e:de:3d:34:73:d3:94:8c:db:4d:12:c1:c9:d8:98:
                    1d:41
                Exponent: 65537 (0x10001)
        X509v3 extensions:
            X509v3 Basic Constraints: 
                CA:FALSE
            X509v3 Subject Key Identifier: 
                C8:DB:88:40:03:5A:05:6F:87:E7:52:67:76:07:FC:AD:95:B5:6C:5F
            X509v3 Authority Key Identifier: 
                keyid:2A:D4:01:B2:40:C3:B8:2A:22:FA:C7:0E:A7:CD:F1:E3:66:10:C6:87
                DirName:/CN=TestenvOVPN
                serial:D3:61:25:7E:52:DC:27:0C

            X509v3 Extended Key Usage: 
                TLS Web Client Authentication
            X509v3 Key Usage: 
                Digital Signature
    Signature Algorithm: sha256WithRSAEncryption
         97:78:d2:3e:47:0a:ac:3d:40:cf:bc:75:fb:7a:5a:64:28:f4:
         2a:ae:43:64:14:a6:6e:5a:34:15:0f:ec:1d:fb:51:29:d6:3d:
         4c:27:4b:54:0a:fb:4e:a7:4c:eb:93:eb:b3:aa:06:fd:d3:19:
         e3:92:37:59:08:7d:8c:48:fd:61:58:41:f4:b8:d5:b5:a8:06:
         9f:df:2f:88:38:0c:42:5e:31:dc:9b:6d:d3:54:2f:fd:2a:24:
         1e:6a:0e:9f:9e:11:13:fa:79:40:63:6d:3f:79:6d:b0:60:5a:
         98:09:2e:c2:9e:26:ff:78:44:00:c2:30:16:18:01:af:08:17:
         57:c9:50:3e:4f:08:17:bf:7c:bc:9e:ed:63:e8:d7:41:95:00:
         f4:f8:9d:98:e8:d1:33:c6:11:81:87:87:89:84:36:2c:2a:3b:
         ec:0b:5c:f8:bf:e1:32:9c:9c:72:2d:4a:9a:a7:6e:fb:d9:23:
         a8:ac:46:0f:87:e7:ce:97:a7:49:fa:2a:35:62:b2:e5:73:9a:
         c0:31:78:b6:70:9d:bf:8d:26:c0:9b:71:a7:63:f0:0f:b4:39:
         a5:50:b6:e6:d3:e8:6e:8b:4e:82:83:67:53:3f:f2:30:39:8b:
         ae:53:f0:86:8e:b3:1f:9c:97:5b:61:5a:00:6b:00:00:44:e8:
         40:0e:ae:69
-----BEGIN CERTIFICATE-----
MIIDTjCCAjagAwIBAgIQUU/WLLpNK183+LCWseUTRTANBgkqhkiG9w0BAQsFADAW
MRQwEgYDVQQDDAtUZXN0ZW52T1ZQTjAeFw0yMTAyMTExODEyMjVaFw0yMzA1MTcx
ODEyMjVaMBYxFDASBgNVBAMMC09WUE5DbGllbnQyMIIBIjANBgkqhkiG9w0BAQEF
AAOCAQ8AMIIBCgKCAQEAx6xvF8Ug+rW6bq5Yu1oO2a9P5x1Eew4OQsn/6zcpMeBo
V3aYEfoMTZ2AoXHKLoZPk2qBG2WVKG70ZoO7n4yBtg1nrg5Fv1vu9fjwmOJGuk0f
aid6inUCo9MQEF68SY0GOJXn++VLsD+yabbp0SMZhYZNKFJE6hbvwvyHxKJ2Ze/3
03M4K42b9gtXfxQI2R16gKdYzSi5AKfigiIevvxIyBN8M3rg8UpQnuwhj84nzL2r
6w0WCjwTTDoFyX+qs/wq7sbVwl67mSTsm0EZ8dUwLm2w9q9xLognsCXFYzUsU2B3
vk00Db62BtjGgdWAD95+3j00c9OUjNtNEsHJ2JgdQQIDAQABo4GXMIGUMAkGA1Ud
EwQCMAAwHQYDVR0OBBYEFMjbiEADWgVvh+dSZ3YH/K2VtWxfMEYGA1UdIwQ/MD2A
FCrUAbJAw7gqIvrHDqfN8eNmEMaHoRqkGDAWMRQwEgYDVQQDDAtUZXN0ZW52T1ZQ
ToIJANNhJX5S3CcMMBMGA1UdJQQMMAoGCCsGAQUFBwMCMAsGA1UdDwQEAwIHgDAN
BgkqhkiG9w0BAQsFAAOCAQEAl3jSPkcKrD1Az7x1+3paZCj0Kq5DZBSmblo0FQ/s
HftRKdY9TCdLVAr7TqdM65Prs6oG/dMZ45I3WQh9jEj9YVhB9LjVtagGn98viDgM
Ql4x3Jtt01Qv/SokHmoOn54RE/p5QGNtP3ltsGBamAkuwp4m/3hEAMIwFhgBrwgX
V8lQPk8IF798vJ7tY+jXQZUA9PidmOjRM8YRgYeHiYQ2LCo77Atc+L/hMpycci1K
mqdu+9kjqKxGD4fnzpenSfoqNWKy5XOawDF4tnCdv40mwJtxp2PwD7Q5pVC25tPo
botOgoNnUz/yMDmLrlPwho6zH5yXW2FaAGsAAEToQA6uaQ==
-----END CERTIFICATE-----
